target datalayout = "e-m:e-p270:32:32-p271:32:32-p272:64:64-i64:64-i128:128-f80:128-n8:16:32:64-S128"
target triple = "x86_64-pc-linux-gnu"

%"class.cvc5::internal::NodeTemplate" = type { ptr }
%"class.cvc5::internal::theory::strings::InferenceManager" = type { %"class.cvc5::internal::theory::strings::InferSideEffectProcess", %"class.cvc5::internal::theory::InferenceManagerBuffered.base", ptr, ptr, ptr, ptr, %"class.std::unique_ptr.13", %"class.std::unique_ptr.13", %"class.cvc5::internal::NodeTemplate", %"class.cvc5::internal::NodeTemplate", %"class.cvc5::internal::NodeTemplate", %"class.cvc5::internal::NodeTemplate" }
%"class.cvc5::internal::theory::strings::InferSideEffectProcess" = type { ptr }
%"class.cvc5::internal::theory::InferenceManagerBuffered.base" = type <{ %"class.cvc5::internal::theory::TheoryInferenceManager", %"class.std::vector", %"class.std::vector", %"class.std::map", i8 }>
%"class.cvc5::internal::theory::TheoryInferenceManager" = type { %"class.cvc5::internal::EnvObj", ptr, ptr, ptr, ptr, ptr, ptr, %"class.std::unique_ptr", %"class.std::unique_ptr.2", i8, %"class.cvc5::context::CDHashSet", %"class.cvc5::context::CDHashSet", i32, i32, i32, %"class.cvc5::internal::HistogramStat", %"class.cvc5::internal::HistogramStat", %"class.cvc5::internal::HistogramStat" }
%"class.cvc5::internal::EnvObj" = type { ptr, ptr }
%"class.std::unique_ptr" = type { %"struct.std::__uniq_ptr_data" }
%"struct.std::__uniq_ptr_data" = type { %"class.std::__uniq_ptr_impl" }
%"class.std::__uniq_ptr_impl" = type { %"class.std::tuple" }
%"class.std::tuple" = type { %"struct.std::_Tuple_impl" }
%"struct.std::_Tuple_impl" = type { %"struct.std::_Head_base.1" }
%"struct.std::_Head_base.1" = type { ptr }
%"class.std::unique_ptr.2" = type { %"struct.std::__uniq_ptr_data.3" }
%"struct.std::__uniq_ptr_data.3" = type { %"class.std::__uniq_ptr_impl.4" }
%"class.std::__uniq_ptr_impl.4" = type { %"class.std::tuple.5" }
%"class.std::tuple.5" = type { %"struct.std::_Tuple_impl.6" }
%"struct.std::_Tuple_impl.6" = type { %"struct.std::_Head_base.9" }
%"struct.std::_Head_base.9" = type { ptr }
%"class.cvc5::context::CDHashSet" = type { %"class.cvc5::context::CDInsertHashMap" }
%"class.cvc5::context::CDInsertHashMap" = type { %"class.cvc5::context::ContextObj", ptr, i64 }
%"class.cvc5::context::ContextObj" = type { ptr, ptr, ptr, ptr, ptr }
%"class.cvc5::internal::HistogramStat" = type { ptr }
%"class.std::vector" = type { %"struct.std::_Vector_base" }
%"struct.std::_Vector_base" = type { %"struct.std::_Vector_base<std::unique_ptr<cvc5::internal::theory::TheoryInference>, std::allocator<std::unique_ptr<cvc5::internal::theory::TheoryInference>>>::_Vector_impl" }
%"struct.std::_Vector_base<std::unique_ptr<cvc5::internal::theory::TheoryInference>, std::allocator<std::unique_ptr<cvc5::internal::theory::TheoryInference>>>::_Vector_impl" = type { %"struct.std::_Vector_base<std::unique_ptr<cvc5::internal::theory::TheoryInference>, std::allocator<std::unique_ptr<cvc5::internal::theory::TheoryInference>>>::_Vector_impl_data" }
%"struct.std::_Vector_base<std::unique_ptr<cvc5::internal::theory::TheoryInference>, std::allocator<std::unique_ptr<cvc5::internal::theory::TheoryInference>>>::_Vector_impl_data" = type { ptr, ptr, ptr }
%"class.std::map" = type { %"class.std::_Rb_tree" }
%"class.std::_Rb_tree" = type { %"struct.std::_Rb_tree<cvc5::internal::NodeTemplate<true>, std::pair<const cvc5::internal::NodeTemplate<true>, bool>, std::_Select1st<std::pair<const cvc5::internal::NodeTemplate<true>, bool>>, std::less<cvc5::internal::NodeTemplate<true>>>::_Rb_tree_impl" }
%"struct.std::_Rb_tree<cvc5::internal::NodeTemplate<true>, std::pair<const cvc5::internal::NodeTemplate<true>, bool>, std::_Select1st<std::pair<const cvc5::internal::NodeTemplate<true>, bool>>, std::less<cvc5::internal::NodeTemplate<true>>>::_Rb_tree_impl" = type { [8 x i8], %"struct.std::_Rb_tree_header" }
%"struct.std::_Rb_tree_header" = type { %"struct.std::_Rb_tree_node_base", i64 }
%"struct.std::_Rb_tree_node_base" = type { i32, ptr, ptr, ptr }
%"class.std::unique_ptr.13" = type { %"struct.std::__uniq_ptr_data.14" }
%"struct.std::__uniq_ptr_data.14" = type { %"class.std::__uniq_ptr_impl.15" }
%"class.std::__uniq_ptr_impl.15" = type { %"class.std::tuple.16" }
%"class.std::tuple.16" = type { %"struct.std::_Tuple_impl.17" }
%"struct.std::_Tuple_impl.17" = type { %"struct.std::_Head_base.20" }
%"struct.std::_Head_base.20" = type { ptr }

; Function Attrs: mustprogress uwtable
define hidden void @_ZN4cvc58internal6theory7strings16InferenceManager9doPendingEv(ptr noundef nonnull align 8 dereferenceable(432) %0) #4 align 2 {
  %2 = alloca ptr, align 8
  store ptr %0, ptr %2, align 8, !tbaa !3
  %3 = load ptr, ptr %2, align 8
  %4 = getelementptr inbounds i8, ptr %3, i64 8
  call void @_ZN4cvc58internal6theory24InferenceManagerBuffered14doPendingFactsEv(ptr noundef nonnull align 8 dereferenceable(337) %4)
  %5 = getelementptr inbounds nuw %"class.cvc5::internal::theory::strings::InferenceManager", ptr %3, i32 0, i32 2
  %6 = load ptr, ptr %5, align 8, !tbaa !105
  %7 = load ptr, ptr %6, align 8, !tbaa !20
  %8 = getelementptr inbounds ptr, ptr %7, i64 9
  %9 = load ptr, ptr %8, align 8
  %10 = call noundef zeroext i1 %9(ptr noundef nonnull align 8 dereferenceable(160) %6)
  br i1 %10, label %11, label %14

11:                                               ; preds = %1
  %12 = getelementptr inbounds i8, ptr %3, i64 8
  call void @_ZN4cvc58internal6theory24InferenceManagerBuffered18clearPendingLemmasEv(ptr noundef nonnull align 8 dereferenceable(337) %12)
  %13 = getelementptr inbounds i8, ptr %3, i64 8
  call void @_ZN4cvc58internal6theory24InferenceManagerBuffered29clearPendingPhaseRequirementsEv(ptr noundef nonnull align 8 dereferenceable(337) %13)
  br label %17

14:                                               ; preds = %1
  %15 = getelementptr inbounds i8, ptr %3, i64 8
  call void @_ZN4cvc58internal6theory24InferenceManagerBuffered15doPendingLemmasEv(ptr noundef nonnull align 8 dereferenceable(337) %15)
  %16 = getelementptr inbounds i8, ptr %3, i64 8
  call void @_ZN4cvc58internal6theory24InferenceManagerBuffered26doPendingPhaseRequirementsEv(ptr noundef nonnull align 8 dereferenceable(337) %16)
  br label %17

17:                                               ; preds = %14, %11
  ret void
}