; Function Attrs: mustprogress uwtable
define hidden void @_ZN4cvc58internal6theory7strings16InferenceManager9doPendingEv(ptr noundef nonnull align 8 dereferenceable(432) %0) local_unnamed_addr #3 align 2 {
  %2 = getelementptr inbounds nuw i8, ptr %0, i64 8
  tail call void @_ZN4cvc58internal6theory24InferenceManagerBuffered14doPendingFactsEv(ptr noundef nonnull align 8 dereferenceable(337) %2)
  %3 = getelementptr inbounds nuw i8, ptr %0, i64 352
  %4 = load ptr, ptr %3, align 8, !tbaa !100
  %5 = load ptr, ptr %4, align 8, !tbaa !3
  %6 = getelementptr inbounds nuw i8, ptr %5, i64 72
  %7 = load ptr, ptr %6, align 8
  %8 = tail call noundef zeroext i1 %7(ptr noundef nonnull align 8 dereferenceable(160) %4)
  br i1 %8, label %9, label %10

9:                                                ; preds = %1
  tail call void @_ZN4cvc58internal6theory24InferenceManagerBuffered18clearPendingLemmasEv(ptr noundef nonnull align 8 dereferenceable(337) %2)
  tail call void @_ZN4cvc58internal6theory24InferenceManagerBuffered29clearPendingPhaseRequirementsEv(ptr noundef nonnull align 8 dereferenceable(337) %2)
  br label %11

10:                                               ; preds = %1
  tail call void @_ZN4cvc58internal6theory24InferenceManagerBuffered15doPendingLemmasEv(ptr noundef nonnull align 8 dereferenceable(337) %2)
  tail call void @_ZN4cvc58internal6theory24InferenceManagerBuffered26doPendingPhaseRequirementsEv(ptr noundef nonnull align 8 dereferenceable(337) %2)
  br label %11

11:                                               ; preds = %10, %9
  ret void
}